; Function Attrs: nounwind uwtable
define internal fastcc ptr @ZSTD_getDDict(ptr noundef captures(none) %0) unnamed_addr #0 {
  %2 = getelementptr inbounds nuw i8, ptr %0, i64 30208
  %3 = load i32, ptr %2, align 8, !tbaa !23
  switch i32 %3, label %4 [
    i32 1, label %11
    i32 -1, label %8
  ]

4:                                                ; preds = %1
  %5 = getelementptr inbounds nuw i8, ptr %0, i64 30184
  %6 = load ptr, ptr %5, align 8, !tbaa !3
  %7 = tail call i64 @ZSTD_freeDDict(ptr noundef %6) #17
  store i32 0, ptr %2, align 8, !tbaa !23
  tail call void @llvm.memset.p0.i64(ptr noundef nonnull align 8 dereferenceable(16) %5, i8 0, i64 16, i1 false)
  br label %14

8:                                                ; preds = %1
  %9 = getelementptr inbounds nuw i8, ptr %0, i64 30192
  %10 = load ptr, ptr %9, align 8, !tbaa !109
  br label %14

11:                                               ; preds = %1
  store i32 0, ptr %2, align 8, !tbaa !23
  %12 = getelementptr inbounds nuw i8, ptr %0, i64 30192
  %13 = load ptr, ptr %12, align 8, !tbaa !109
  br label %14

14:                                               ; preds = %11, %8, %4
  %.0 = phi ptr [ null, %4 ], [ %10, %8 ], [ %13, %11 ]
  ret ptr %.0
}